target datalayout = "e-m:e-p270:32:32-p271:32:32-p272:64:64-i64:64-i128:128-f80:128-n8:16:32:64-S128"
target triple = "x86_64-pc-linux-gnu"

%struct.RClass_and_rb_classext_t = type { %struct.RClass, %struct.rb_classext_struct }
%struct.RClass = type { %struct.RBasic, i64, ptr }
%struct.RBasic = type { i64, i64 }
%struct.rb_classext_struct = type { ptr, ptr, ptr, ptr, ptr, i64, ptr, ptr, ptr, ptr, i64, i64, %union.anon, i64, i32, i8, i8, i64 }
%union.anon = type { %struct.anon }
%struct.anon = type { ptr }
%struct.gen_ivtbl = type { %union.anon.1 }
%union.anon.1 = type { %struct.anon.2 }
%struct.anon.2 = type { i32, [1 x i64] }
%struct.anon.3 = type { ptr }
%struct.RObject = type { %struct.RBasic, %union.anon.4 }
%union.anon.4 = type { %struct.anon.5 }
%struct.anon.5 = type { ptr }

@generic_iv_tbl_ = internal global ptr null, align 8
@rb_eRactorIsolationError = external global i64, align 8
@.str.16 = private unnamed_addr constant [14 x i8] c"../variable.c\00", align 1
@ruby_single_main_ractor = external global ptr, align 8
@.str.41 = private unnamed_addr constant [77 x i8] c"can not access instance variables of shareable objects from non-main Ractors\00", align 1

; Function Attrs: inlinehint nounwind sspstrong uwtable
define internal zeroext i1 @rb_ractor_main_p() #6 {
  %1 = alloca i1, align 1
  %2 = load ptr, ptr @ruby_single_main_ractor, align 8, !tbaa !91
  %3 = icmp ne ptr %2, null
  br i1 %3, label %4, label %5

4:                                                ; preds = %0
  store i1 true, ptr %1, align 1
  br label %7

5:                                                ; preds = %0
  %6 = call zeroext i1 @rb_ractor_main_p_()
  store i1 %6, ptr %1, align 1
  br label %7

7:                                                ; preds = %5, %4
  %8 = load i1, ptr %1, align 1
  ret i1 %8
}

; Function Attrs: inlinehint nounwind sspstrong willreturn memory(read) uwtable
define internal i64 @RB_OBJ_FROZEN_RAW(i64 noundef %0) #2 {
  %2 = alloca i64, align 8
  store i64 %0, ptr %2, align 8, !tbaa !14
  %3 = load i64, ptr %2, align 8, !tbaa !14
  %4 = call i64 @RB_FL_TEST_RAW(i64 noundef %3, i64 noundef 2048) #29
  ret i64 %4
}

; Function Attrs: inlinehint nounwind sspstrong uwtable
define internal void @set_shape_id_in_flags(i64 noundef %0, i32 noundef %1) #6 {
  %3 = alloca i64, align 8
  %4 = alloca i32, align 4
  store i64 %0, ptr %3, align 8, !tbaa !14
  store i32 %1, ptr %4, align 4, !tbaa !51
  %5 = load i64, ptr %3, align 8, !tbaa !14
  %6 = inttoptr i64 %5 to ptr
  %7 = getelementptr inbounds nuw %struct.RBasic, ptr %6, i32 0, i32 0
  %8 = load i64, ptr %7, align 8, !tbaa !102
  %9 = and i64 %8, 4294967295
  store i64 %9, ptr %7, align 8, !tbaa !102
  %10 = load i32, ptr %4, align 4, !tbaa !51
  %11 = zext i32 %10 to i64
  %12 = shl i64 %11, 32
  %13 = load i64, ptr %3, align 8, !tbaa !14
  %14 = inttoptr i64 %13 to ptr
  %15 = getelementptr inbounds nuw %struct.RBasic, ptr %14, i32 0, i32 0
  %16 = load i64, ptr %15, align 8, !tbaa !102
  %17 = or i64 %16, %12
  store i64 %17, ptr %15, align 8, !tbaa !102
  ret void
}

; Function Attrs: inlinehint nounwind sspstrong willreturn memory(read) uwtable
define internal i64 @RB_FL_TEST_RAW(i64 noundef %0, i64 noundef %1) #2 {
  %3 = alloca i64, align 8
  %4 = alloca i64, align 8
  store i64 %0, ptr %3, align 8, !tbaa !14
  store i64 %1, ptr %4, align 8, !tbaa !14
  %5 = load i64, ptr %3, align 8, !tbaa !14
  %6 = inttoptr i64 %5 to ptr
  %7 = getelementptr inbounds nuw %struct.RBasic, ptr %6, i32 0, i32 0
  %8 = load i64, ptr %7, align 8, !tbaa !102
  %9 = load i64, ptr %4, align 8, !tbaa !14
  %10 = and i64 %8, %9
  ret i64 %10
}

; Function Attrs: inlinehint nounwind sspstrong uwtable
define internal ptr @generic_ivtbl(i64 noundef %0, i64 noundef %1, i1 noundef zeroext %2) #6 {
  %4 = alloca i64, align 8
  %5 = alloca i64, align 8
  %6 = alloca i8, align 1
  store i64 %0, ptr %4, align 8, !tbaa !14
  store i64 %1, ptr %5, align 8, !tbaa !14
  %7 = zext i1 %2 to i8
  store i8 %7, ptr %6, align 1, !tbaa !20
  %8 = load i8, ptr %6, align 1, !tbaa !20, !range !30, !noundef !31
  %9 = trunc i8 %8 to i1
  br i1 %9, label %20, label %10

10:                                               ; preds = %3
  %11 = load i64, ptr %5, align 8, !tbaa !14
  %12 = call i32 @rb_is_instance_id(i64 noundef %11) #32
  %13 = icmp ne i32 %12, 0
  %14 = xor i1 %13, true
  %15 = xor i1 %14, true
  %16 = zext i1 %15 to i32
  %17 = sext i32 %16 to i64
  %18 = call i64 @llvm.expect.i64(i64 %17, i64 1)
  %19 = icmp ne i64 %18, 0
  br i1 %19, label %20, label %44

20:                                               ; preds = %10, %3
  %21 = load i64, ptr %4, align 8, !tbaa !14
  %22 = call i64 @RB_OBJ_FROZEN_RAW(i64 noundef %21) #29
  %23 = icmp ne i64 %22, 0
  br i1 %23, label %44, label %24

24:                                               ; preds = %20
  %25 = call zeroext i1 @rb_ractor_main_p()
  %26 = xor i1 %25, true
  %27 = xor i1 %26, true
  %28 = xor i1 %27, true
  %29 = zext i1 %28 to i32
  %30 = sext i32 %29 to i64
  %31 = call i64 @llvm.expect.i64(i64 %30, i64 0)
  %32 = icmp ne i64 %31, 0
  br i1 %32, label %33, label %44

33:                                               ; preds = %24
  %34 = load i64, ptr %4, align 8, !tbaa !14
  %35 = call zeroext i1 @rb_ractor_shareable_p(i64 noundef %34)
  %36 = xor i1 %35, true
  %37 = xor i1 %36, true
  %38 = zext i1 %37 to i32
  %39 = sext i32 %38 to i64
  %40 = call i64 @llvm.expect.i64(i64 %39, i64 0)
  %41 = icmp ne i64 %40, 0
  br i1 %41, label %42, label %44

42:                                               ; preds = %33
  %43 = load i64, ptr @rb_eRactorIsolationError, align 8, !tbaa !14
  call void (i64, ptr, ...) @rb_raise(i64 noundef %43, ptr noundef @.str.41) #31
  unreachable

44:                                               ; preds = %33, %24, %20, %10
  %45 = load ptr, ptr @generic_iv_tbl_, align 8, !tbaa !12
  ret ptr %45
}

; Function Attrs: inlinehint nounwind sspstrong uwtable
define internal zeroext i1 @rb_multi_ractor_p() #6 {
  %1 = alloca i1, align 1
  %2 = load ptr, ptr @ruby_single_main_ractor, align 8, !tbaa !91
  %3 = icmp ne ptr %2, null
  %4 = xor i1 %3, true
  %5 = xor i1 %4, true
  %6 = zext i1 %5 to i32
  %7 = sext i32 %6 to i64
  %8 = call i64 @llvm.expect.i64(i64 %7, i64 1)
  %9 = icmp ne i64 %8, 0
  br i1 %9, label %10, label %11

10:                                               ; preds = %0
  store i1 false, ptr %1, align 1
  br label %12

11:                                               ; preds = %0
  store i1 true, ptr %1, align 1
  br label %12

12:                                               ; preds = %11, %10
  %13 = load i1, ptr %1, align 1
  ret i1 %13
}

; Function Attrs: inlinehint nounwind sspstrong uwtable
define internal void @RBASIC_SET_SHAPE_ID(i64 noundef %0, i32 noundef %1) #6 {
  %3 = alloca i64, align 8
  %4 = alloca i32, align 4
  store i64 %0, ptr %3, align 8, !tbaa !14
  store i32 %1, ptr %4, align 4, !tbaa !51
  %5 = load i64, ptr %3, align 8, !tbaa !14
  %6 = load i32, ptr %4, align 4, !tbaa !51
  call void @set_shape_id_in_flags(i64 noundef %5, i32 noundef %6)
  ret void
}

; Function Attrs: inlinehint nounwind sspstrong willreturn memory(read) uwtable
define internal zeroext i1 @RB_FL_ANY_RAW(i64 noundef %0, i64 noundef %1) #2 {
  %3 = alloca i64, align 8
  %4 = alloca i64, align 8
  store i64 %0, ptr %3, align 8, !tbaa !14
  store i64 %1, ptr %4, align 8, !tbaa !14
  %5 = load i64, ptr %3, align 8, !tbaa !14
  %6 = load i64, ptr %4, align 8, !tbaa !14
  %7 = call i64 @RB_FL_TEST_RAW(i64 noundef %5, i64 noundef %6) #29
  %8 = icmp ne i64 %7, 0
  ret i1 %8
}

; Function Attrs: inlinehint nounwind sspstrong uwtable
define internal void @rb_vm_lock_leave(ptr noundef %0, ptr noundef %1, i32 noundef %2) #6 {
  %4 = alloca ptr, align 8
  %5 = alloca ptr, align 8
  %6 = alloca i32, align 4
  store ptr %0, ptr %4, align 8, !tbaa !98
  store ptr %1, ptr %5, align 8, !tbaa !16
  store i32 %2, ptr %6, align 4, !tbaa !51
  %7 = call zeroext i1 @rb_multi_ractor_p()
  br i1 %7, label %8, label %10

8:                                                ; preds = %3
  %9 = load ptr, ptr %4, align 8, !tbaa !98
  call void @rb_vm_lock_leave_body(ptr noundef %9)
  br label %10

10:                                               ; preds = %8, %3
  ret void
}

; Function Attrs: inlinehint nounwind sspstrong uwtable
define internal ptr @generic_ivtbl_no_ractor_check(i64 noundef %0) #6 {
  %2 = alloca i64, align 8
  store i64 %0, ptr %2, align 8, !tbaa !14
  %3 = load i64, ptr %2, align 8, !tbaa !14
  %4 = call ptr @generic_ivtbl(i64 noundef %3, i64 noundef 0, i1 noundef zeroext false)
  ret ptr %4
}

; Function Attrs: inlinehint nounwind sspstrong uwtable
define internal void @rb_vm_lock_enter(ptr noundef %0, ptr noundef %1, i32 noundef %2) #6 {
  %4 = alloca ptr, align 8
  %5 = alloca ptr, align 8
  %6 = alloca i32, align 4
  store ptr %0, ptr %4, align 8, !tbaa !98
  store ptr %1, ptr %5, align 8, !tbaa !16
  store i32 %2, ptr %6, align 4, !tbaa !51
  %7 = call zeroext i1 @rb_multi_ractor_p()
  br i1 %7, label %8, label %10

8:                                                ; preds = %3
  %9 = load ptr, ptr %4, align 8, !tbaa !98
  call void @rb_vm_lock_enter_body(ptr noundef %9)
  br label %10

10:                                               ; preds = %8, %3
  ret void
}

; Function Attrs: inlinehint nounwind sspstrong uwtable
define internal void @RCLASS_SET_IV_HASH(i64 noundef %0, ptr noundef %1) #6 {
  %3 = alloca i64, align 8
  %4 = alloca ptr, align 8
  store i64 %0, ptr %3, align 8, !tbaa !14
  store ptr %1, ptr %4, align 8, !tbaa !12
  %5 = load ptr, ptr %4, align 8, !tbaa !12
  %6 = load i64, ptr %3, align 8, !tbaa !14
  %7 = inttoptr i64 %6 to ptr
  %8 = getelementptr inbounds nuw %struct.RClass_and_rb_classext_t, ptr %7, i32 0, i32 1
  %9 = getelementptr inbounds nuw %struct.rb_classext_struct, ptr %8, i32 0, i32 0
  store ptr %5, ptr %9, align 8, !tbaa !101
  ret void
}

; Function Attrs: inlinehint nounwind sspstrong uwtable
define internal void @ROBJECT_SET_IV_HASH(i64 noundef %0, ptr noundef %1) #6 {
  %3 = alloca i64, align 8
  %4 = alloca ptr, align 8
  store i64 %0, ptr %3, align 8, !tbaa !14
  store ptr %1, ptr %4, align 8, !tbaa !12
  %5 = load ptr, ptr %4, align 8, !tbaa !12
  %6 = load i64, ptr %3, align 8, !tbaa !14
  %7 = inttoptr i64 %6 to ptr
  %8 = getelementptr inbounds nuw %struct.RObject, ptr %7, i32 0, i32 1
  %9 = getelementptr inbounds nuw %struct.anon.5, ptr %8, i32 0, i32 0
  store ptr %5, ptr %9, align 8, !tbaa !36
  ret void
}

; Function Attrs: nounwind sspstrong uwtable
define hidden zeroext i1 @rb_shape_set_shape_id(i64 noundef %0, i32 noundef %1) #0 {
  %3 = alloca i1, align 1
  %4 = alloca i64, align 8
  %5 = alloca i32, align 4
  store i64 %0, ptr %4, align 8, !tbaa !14
  store i32 %1, ptr %5, align 4, !tbaa !51
  %6 = load i64, ptr %4, align 8, !tbaa !14
  %7 = call i32 @rb_shape_get_shape_id(i64 noundef %6)
  %8 = load i32, ptr %5, align 4, !tbaa !51
  %9 = icmp eq i32 %7, %8
  br i1 %9, label %10, label %11

10:                                               ; preds = %2
  store i1 false, ptr %3, align 1
  br label %14

11:                                               ; preds = %2
  %12 = load i64, ptr %4, align 8, !tbaa !14
  %13 = load i32, ptr %5, align 4, !tbaa !51
  call void @RBASIC_SET_SHAPE_ID(i64 noundef %12, i32 noundef %13)
  store i1 true, ptr %3, align 1
  br label %14

14:                                               ; preds = %11, %10
  %15 = load i1, ptr %3, align 1
  ret i1 %15
}

; Function Attrs: inlinehint nounwind sspstrong willreturn memory(read) uwtable
define internal ptr @ROBJECT_IVPTR(i64 noundef %0) #2 {
  %2 = alloca ptr, align 8
  %3 = alloca i64, align 8
  %4 = alloca ptr, align 8
  %5 = alloca i32, align 4
  store i64 %0, ptr %3, align 8, !tbaa !14
  call void @llvm.lifetime.start.p0(i64 8, ptr %4) #30
  %6 = load i64, ptr %3, align 8, !tbaa !14
  %7 = inttoptr i64 %6 to ptr
  store ptr %7, ptr %4, align 8, !tbaa !103
  %8 = load i64, ptr %3, align 8, !tbaa !14
  %9 = call zeroext i1 @RB_FL_ANY_RAW(i64 noundef %8, i64 noundef 8192) #29
  br i1 %9, label %10, label %14

10:                                               ; preds = %1
  %11 = load ptr, ptr %4, align 8, !tbaa !103
  %12 = getelementptr inbounds nuw %struct.RObject, ptr %11, i32 0, i32 1
  %13 = getelementptr inbounds [1 x i64], ptr %12, i64 0, i64 0
  store ptr %13, ptr %2, align 8
  store i32 1, ptr %5, align 4
  br label %19

14:                                               ; preds = %1
  %15 = load ptr, ptr %4, align 8, !tbaa !103
  %16 = getelementptr inbounds nuw %struct.RObject, ptr %15, i32 0, i32 1
  %17 = getelementptr inbounds nuw %struct.anon.5, ptr %16, i32 0, i32 0
  %18 = load ptr, ptr %17, align 8, !tbaa !36
  store ptr %18, ptr %2, align 8
  store i32 1, ptr %5, align 4
  br label %19

19:                                               ; preds = %14, %10
  call void @llvm.lifetime.end.p0(i64 8, ptr %4) #30
  %20 = load ptr, ptr %2, align 8
  ret ptr %20
}

; Function Attrs: inlinehint nounwind sspstrong willreturn memory(read) uwtable
define internal i32 @RB_BUILTIN_TYPE(i64 noundef %0) #2 {
  %2 = alloca i64, align 8
  %3 = alloca i64, align 8
  store i64 %0, ptr %2, align 8, !tbaa !14
  call void @llvm.lifetime.start.p0(i64 8, ptr %3) #30
  %4 = load i64, ptr %2, align 8, !tbaa !14
  %5 = inttoptr i64 %4 to ptr
  %6 = getelementptr inbounds nuw %struct.RBasic, ptr %5, i32 0, i32 0
  %7 = load i64, ptr %6, align 8, !tbaa !102
  %8 = and i64 %7, 31
  store i64 %8, ptr %3, align 8, !tbaa !14
  %9 = load i64, ptr %3, align 8, !tbaa !14
  %10 = trunc i64 %9 to i32
  call void @llvm.lifetime.end.p0(i64 8, ptr %3) #30
  ret i32 %10
}

; Function Attrs: nounwind sspstrong uwtable
define hidden void @rb_obj_convert_to_too_complex(i64 noundef %0, ptr noundef %1) #0 {
  %3 = alloca i64, align 8
  %4 = alloca ptr, align 8
  %5 = alloca ptr, align 8
  %6 = alloca i32, align 4
  %7 = alloca ptr, align 8
  %8 = alloca ptr, align 8
  %9 = alloca ptr, align 8
  store i64 %0, ptr %3, align 8, !tbaa !14
  store ptr %1, ptr %4, align 8, !tbaa !12
  call void @llvm.lifetime.start.p0(i64 8, ptr %5) #30
  store ptr null, ptr %5, align 8, !tbaa !49
  %10 = load i64, ptr %3, align 8, !tbaa !14
  %11 = call i32 @RB_BUILTIN_TYPE(i64 noundef %10) #29
  switch i32 %11, label %37 [
    i32 1, label %12
    i32 2, label %27
    i32 3, label %27
  ]

12:                                               ; preds = %2
  %13 = load i64, ptr %3, align 8, !tbaa !14
  %14 = inttoptr i64 %13 to ptr
  %15 = getelementptr inbounds nuw %struct.RBasic, ptr %14, i32 0, i32 0
  %16 = load i64, ptr %15, align 8, !tbaa !102
  %17 = and i64 %16, 8192
  %18 = icmp ne i64 %17, 0
  br i1 %18, label %22, label %19

19:                                               ; preds = %12
  %20 = load i64, ptr %3, align 8, !tbaa !14
  %21 = call ptr @ROBJECT_IVPTR(i64 noundef %20) #29
  store ptr %21, ptr %5, align 8, !tbaa !49
  br label %22

22:                                               ; preds = %19, %12
  %23 = load i64, ptr %3, align 8, !tbaa !14
  %24 = call zeroext i1 @rb_shape_set_shape_id(i64 noundef %23, i32 noundef 2)
  %25 = load i64, ptr %3, align 8, !tbaa !14
  %26 = load ptr, ptr %4, align 8, !tbaa !12
  call void @ROBJECT_SET_IV_HASH(i64 noundef %25, ptr noundef %26)
  br label %66

27:                                               ; preds = %2, %2
  %28 = load i64, ptr %3, align 8, !tbaa !14
  %29 = inttoptr i64 %28 to ptr
  %30 = getelementptr inbounds nuw %struct.RClass_and_rb_classext_t, ptr %29, i32 0, i32 1
  %31 = getelementptr inbounds nuw %struct.rb_classext_struct, ptr %30, i32 0, i32 0
  %32 = load ptr, ptr %31, align 8, !tbaa !101
  store ptr %32, ptr %5, align 8, !tbaa !49
  %33 = load i64, ptr %3, align 8, !tbaa !14
  %34 = call zeroext i1 @rb_shape_set_shape_id(i64 noundef %33, i32 noundef 2)
  %35 = load i64, ptr %3, align 8, !tbaa !14
  %36 = load ptr, ptr %4, align 8, !tbaa !12
  call void @RCLASS_SET_IV_HASH(i64 noundef %35, ptr noundef %36)
  br label %66

37:                                               ; preds = %2
  call void @llvm.lifetime.start.p0(i64 4, ptr %6) #30
  call void @rb_vm_lock_enter(ptr noundef %6, ptr noundef @.str.16, i32 noundef 1423)
  call void @llvm.lifetime.start.p0(i64 8, ptr %7) #30
  %38 = load i64, ptr %3, align 8, !tbaa !14
  %39 = call ptr @generic_ivtbl_no_ractor_check(i64 noundef %38)
  store ptr %39, ptr %7, align 8, !tbaa !12
  call void @llvm.lifetime.start.p0(i64 8, ptr %8) #30
  store ptr null, ptr %8, align 8, !tbaa !96
  %40 = load ptr, ptr %7, align 8, !tbaa !12
  %41 = load i64, ptr %3, align 8, !tbaa !14
  %42 = call i32 @rb_st_lookup(ptr noundef %40, i64 noundef %41, ptr noundef %8)
  %43 = load ptr, ptr %8, align 8, !tbaa !96
  %44 = icmp ne ptr %43, null
  br i1 %44, label %45, label %53

45:                                               ; preds = %37
  %46 = load i64, ptr %3, align 8, !tbaa !14
  %47 = call zeroext i1 @rb_shape_set_shape_id(i64 noundef %46, i32 noundef 2)
  %48 = load ptr, ptr %4, align 8, !tbaa !12
  %49 = load ptr, ptr %8, align 8, !tbaa !96
  %50 = getelementptr inbounds nuw %struct.gen_ivtbl, ptr %49, i32 0, i32 0
  %51 = getelementptr inbounds nuw %struct.anon.3, ptr %50, i32 0, i32 0
  store ptr %48, ptr %51, align 8, !tbaa !36
  %52 = load ptr, ptr %8, align 8, !tbaa !96
  store ptr %52, ptr %5, align 8, !tbaa !49
  br label %53

53:                                               ; preds = %45, %37
  call void @llvm.lifetime.start.p0(i64 8, ptr %9) #30
  %54 = call noalias nonnull ptr @ruby_xmalloc(i64 noundef 16) #35
  store ptr %54, ptr %9, align 8, !tbaa !96
  %55 = load ptr, ptr %4, align 8, !tbaa !12
  %56 = load ptr, ptr %9, align 8, !tbaa !96
  %57 = getelementptr inbounds nuw %struct.gen_ivtbl, ptr %56, i32 0, i32 0
  %58 = getelementptr inbounds nuw %struct.anon.3, ptr %57, i32 0, i32 0
  store ptr %55, ptr %58, align 8, !tbaa !36
  %59 = load ptr, ptr %7, align 8, !tbaa !12
  %60 = load i64, ptr %3, align 8, !tbaa !14
  %61 = load ptr, ptr %9, align 8, !tbaa !96
  %62 = ptrtoint ptr %61 to i64
  %63 = call i32 @rb_st_insert(ptr noundef %59, i64 noundef %60, i64 noundef %62)
  %64 = load i64, ptr %3, align 8, !tbaa !14
  %65 = call zeroext i1 @rb_shape_set_shape_id(i64 noundef %64, i32 noundef 2)
  call void @llvm.lifetime.end.p0(i64 8, ptr %9) #30
  call void @llvm.lifetime.end.p0(i64 8, ptr %8) #30
  call void @llvm.lifetime.end.p0(i64 8, ptr %7) #30
  call void @rb_vm_lock_leave(ptr noundef %6, ptr noundef @.str.16, i32 noundef 1453)
  call void @llvm.lifetime.end.p0(i64 4, ptr %6) #30
  br label %66

66:                                               ; preds = %53, %27, %22
  %67 = load ptr, ptr %5, align 8, !tbaa !49
  call void @ruby_xfree(ptr noundef %67)
  call void @llvm.lifetime.end.p0(i64 8, ptr %5) #30
  ret void
}