; Function Attrs: nounwind sspstrong uwtable
define hidden void @rb_obj_convert_to_too_complex(i64 noundef %0, ptr noundef %1) local_unnamed_addr #0 {
  %3 = alloca i32, align 4
  %4 = alloca ptr, align 8
  %5 = inttoptr i64 %0 to ptr
  %6 = load i64, ptr %5, align 8, !tbaa !28
  %7 = trunc i64 %6 to i32
  %8 = and i32 %7, 31
  switch i32 %8, label %28 [
    i32 1, label %9
    i32 2, label %20
    i32 3, label %20
  ]

9:                                                ; preds = %2
  %10 = and i64 %6, 8192
  %.not = icmp eq i64 %10, 0
  br i1 %.not, label %ROBJECT_IVPTR.exit, label %13

ROBJECT_IVPTR.exit:                               ; preds = %9
  %11 = getelementptr inbounds nuw i8, ptr %5, i64 16
  %12 = load ptr, ptr %11, align 8, !tbaa !32
  br label %13

13:                                               ; preds = %ROBJECT_IVPTR.exit, %9
  %.0 = phi ptr [ null, %9 ], [ %12, %ROBJECT_IVPTR.exit ]
  %14 = tail call i32 @rb_shape_get_shape_id(i64 noundef %0) #27
  %.not28 = icmp eq i32 %14, 2
  br i1 %.not28, label %rb_shape_set_shape_id.exit, label %15

15:                                               ; preds = %13
  %16 = load i64, ptr %5, align 8, !tbaa !28
  %17 = and i64 %16, 4294967295
  %18 = or disjoint i64 %17, 8589934592
  store i64 %18, ptr %5, align 8, !tbaa !28
  br label %rb_shape_set_shape_id.exit

rb_shape_set_shape_id.exit:                       ; preds = %13, %15
  %19 = getelementptr inbounds nuw i8, ptr %5, i64 16
  store ptr %1, ptr %19, align 8, !tbaa !32
  br label %63

20:                                               ; preds = %2, %2
  %21 = getelementptr inbounds nuw i8, ptr %5, i64 32
  %22 = load ptr, ptr %21, align 8, !tbaa !97
  %23 = tail call i32 @rb_shape_get_shape_id(i64 noundef %0) #27
  %.not27 = icmp eq i32 %23, 2
  br i1 %.not27, label %rb_shape_set_shape_id.exit22, label %24

24:                                               ; preds = %20
  %25 = load i64, ptr %5, align 8, !tbaa !28
  %26 = and i64 %25, 4294967295
  %27 = or disjoint i64 %26, 8589934592
  store i64 %27, ptr %5, align 8, !tbaa !28
  br label %rb_shape_set_shape_id.exit22

rb_shape_set_shape_id.exit22:                     ; preds = %20, %24
  store ptr %1, ptr %21, align 8, !tbaa !97
  br label %63

28:                                               ; preds = %2
  call void @llvm.lifetime.start.p0(i64 4, ptr nonnull %3) #27
  %29 = load ptr, ptr @ruby_single_main_ractor, align 8, !tbaa !68
  %.not.i.i = icmp eq ptr %29, null
  br i1 %.not.i.i, label %30, label %rb_vm_lock_enter.exit

30:                                               ; preds = %28
  call void @rb_vm_lock_enter_body(ptr noundef nonnull %3) #27
  br label %rb_vm_lock_enter.exit

rb_vm_lock_enter.exit:                            ; preds = %28, %30
  %31 = call i32 @rb_is_instance_id(i64 noundef 0) #32
  %.not.i.i23 = icmp eq i32 %31, 0
  br i1 %.not.i.i23, label %generic_ivtbl_no_ractor_check.exit, label %32, !prof !93

32:                                               ; preds = %rb_vm_lock_enter.exit
  %33 = load i64, ptr %5, align 8, !tbaa !28
  %34 = and i64 %33, 2048
  %.not4.i.i = icmp eq i64 %34, 0
  %35 = load ptr, ptr @ruby_single_main_ractor, align 8
  %.not.i.i.i = icmp eq ptr %35, null
  %or.cond.i.i = select i1 %.not4.i.i, i1 %.not.i.i.i, i1 false
  br i1 %or.cond.i.i, label %rb_ractor_main_p.exit.i.i, label %generic_ivtbl_no_ractor_check.exit

rb_ractor_main_p.exit.i.i:                        ; preds = %32
  %36 = call zeroext i1 @rb_ractor_main_p_() #27
  br i1 %36, label %generic_ivtbl_no_ractor_check.exit, label %37, !prof !70

37:                                               ; preds = %rb_ractor_main_p.exit.i.i
  %38 = call fastcc zeroext i1 @rb_ractor_shareable_p(i64 noundef %0)
  br i1 %38, label %39, label %generic_ivtbl_no_ractor_check.exit, !prof !93

39:                                               ; preds = %37
  %40 = load i64, ptr @rb_eRactorIsolationError, align 8, !tbaa !14
  call void (i64, ptr, ...) @rb_raise(i64 noundef %40, ptr noundef nonnull @.str.41) #28
  unreachable

generic_ivtbl_no_ractor_check.exit:               ; preds = %rb_vm_lock_enter.exit, %32, %rb_ractor_main_p.exit.i.i, %37
  %41 = load ptr, ptr @generic_iv_tbl_, align 8, !tbaa !12
  call void @llvm.lifetime.start.p0(i64 8, ptr nonnull %4) #27
  store ptr null, ptr %4, align 8, !tbaa !94
  %42 = call i32 @rb_st_lookup(ptr noundef %41, i64 noundef %0, ptr noundef nonnull %4) #27
  %43 = load ptr, ptr %4, align 8, !tbaa !94
  %.not21 = icmp eq ptr %43, null
  br i1 %.not21, label %52, label %44

44:                                               ; preds = %generic_ivtbl_no_ractor_check.exit
  %45 = call i32 @rb_shape_get_shape_id(i64 noundef %0) #27
  %.not29 = icmp eq i32 %45, 2
  br i1 %.not29, label %rb_shape_set_shape_id.exit24, label %46

46:                                               ; preds = %44
  %47 = load i64, ptr %5, align 8, !tbaa !28
  %48 = and i64 %47, 4294967295
  %49 = or disjoint i64 %48, 8589934592
  store i64 %49, ptr %5, align 8, !tbaa !28
  br label %rb_shape_set_shape_id.exit24

rb_shape_set_shape_id.exit24:                     ; preds = %44, %46
  %50 = load ptr, ptr %4, align 8, !tbaa !94
  store ptr %1, ptr %50, align 8, !tbaa !32
  %51 = load ptr, ptr %4, align 8, !tbaa !94
  br label %52

52:                                               ; preds = %rb_shape_set_shape_id.exit24, %generic_ivtbl_no_ractor_check.exit
  %.2 = phi ptr [ %51, %rb_shape_set_shape_id.exit24 ], [ null, %generic_ivtbl_no_ractor_check.exit ]
  %53 = call noalias nonnull dereferenceable(16) ptr @ruby_xmalloc(i64 noundef 16) #30
  store ptr %1, ptr %53, align 8, !tbaa !32
  %54 = ptrtoint ptr %53 to i64
  %55 = call i32 @rb_st_insert(ptr noundef %41, i64 noundef %0, i64 noundef %54) #27
  %56 = call i32 @rb_shape_get_shape_id(i64 noundef %0) #27
  %.not30 = icmp eq i32 %56, 2
  br i1 %.not30, label %rb_shape_set_shape_id.exit25, label %57

57:                                               ; preds = %52
  %58 = load i64, ptr %5, align 8, !tbaa !28
  %59 = and i64 %58, 4294967295
  %60 = or disjoint i64 %59, 8589934592
  store i64 %60, ptr %5, align 8, !tbaa !28
  br label %rb_shape_set_shape_id.exit25

rb_shape_set_shape_id.exit25:                     ; preds = %52, %57
  call void @llvm.lifetime.end.p0(i64 8, ptr nonnull %4) #27
  %61 = load ptr, ptr @ruby_single_main_ractor, align 8, !tbaa !68
  %.not.i.i26 = icmp eq ptr %61, null
  br i1 %.not.i.i26, label %62, label %rb_vm_lock_leave.exit

62:                                               ; preds = %rb_shape_set_shape_id.exit25
  call void @rb_vm_lock_leave_body(ptr noundef nonnull %3) #27
  br label %rb_vm_lock_leave.exit

rb_vm_lock_leave.exit:                            ; preds = %rb_shape_set_shape_id.exit25, %62
  call void @llvm.lifetime.end.p0(i64 4, ptr nonnull %3) #27
  br label %63

63:                                               ; preds = %rb_vm_lock_leave.exit, %rb_shape_set_shape_id.exit22, %rb_shape_set_shape_id.exit
  %.1 = phi ptr [ %.2, %rb_vm_lock_leave.exit ], [ %22, %rb_shape_set_shape_id.exit22 ], [ %.0, %rb_shape_set_shape_id.exit ]
  call void @ruby_xfree(ptr noundef %.1) #27
  ret void
}